; Function Attrs: nounwind uwtable
define internal void @moddes(ptr noundef readonly captures(none) %0) #0 {
  %2 = getelementptr inbounds nuw i8, ptr %0, i64 152
  %3 = load ptr, ptr %2, align 8, !tbaa !44
  %4 = getelementptr inbounds nuw i8, ptr %3, i64 16
  %5 = load ptr, ptr %4, align 8, !tbaa !47
  %.not = icmp eq ptr %5, null
  br i1 %.not, label %7, label %6

6:                                                ; preds = %1
  tail call void %5() #11
  br label %7

7:                                                ; preds = %6, %1
  ret void
}